target datalayout = "e-m:e-p270:32:32-p271:32:32-p272:64:64-i64:64-i128:128-f80:128-n8:16:32:64-S128"
target triple = "x86_64-pc-linux-gnu"

@_ZN4leanL12g_stack_sizeE = internal thread_local(localexec) global i64 0, align 8
@_ZN4leanL12g_stack_baseE = internal thread_local(localexec) global i64 0, align 8

; Function Attrs: mustprogress nounwind uwtable
define internal noundef ptr @_ZN4leanL17get_stack_pointerEv() #5 {
  %1 = call ptr @llvm.frameaddress.p0(i32 0)
  ret ptr %1
}

; Function Attrs: mustprogress uwtable
define noundef i64 @_ZN4lean19get_used_stack_sizeEv() #0 {
  %1 = alloca i64, align 8
  call void @llvm.lifetime.start.p0(i64 8, ptr %1) #11
  %2 = call noundef ptr @_ZN4leanL17get_stack_pointerEv()
  %3 = ptrtoint ptr %2 to i64
  store i64 %3, ptr %1, align 8, !tbaa !19
  %4 = call align 8 ptr @llvm.threadlocal.address.p0(ptr align 8 @_ZN4leanL12g_stack_baseE)
  %5 = load i64, ptr %4, align 8, !tbaa !19
  %6 = load i64, ptr %1, align 8, !tbaa !19
  %7 = sub i64 %5, %6
  call void @llvm.lifetime.end.p0(i64 8, ptr %1) #11
  ret i64 %7
}

; Function Attrs: mustprogress uwtable
define noundef i64 @_ZN4lean24get_available_stack_sizeEv() #0 {
  %1 = alloca i64, align 8
  %2 = alloca i64, align 8
  %3 = alloca i32, align 4
  call void @llvm.lifetime.start.p0(i64 8, ptr %2) #11
  %4 = call noundef i64 @_ZN4lean19get_used_stack_sizeEv()
  store i64 %4, ptr %2, align 8, !tbaa !19
  %5 = load i64, ptr %2, align 8, !tbaa !19
  %6 = call align 8 ptr @llvm.threadlocal.address.p0(ptr align 8 @_ZN4leanL12g_stack_sizeE)
  %7 = load i64, ptr %6, align 8, !tbaa !19
  %8 = icmp ugt i64 %5, %7
  br i1 %8, label %9, label %10

9:                                                ; preds = %0
  store i64 0, ptr %1, align 8
  store i32 1, ptr %3, align 4
  br label %15

10:                                               ; preds = %0
  %11 = call align 8 ptr @llvm.threadlocal.address.p0(ptr align 8 @_ZN4leanL12g_stack_sizeE)
  %12 = load i64, ptr %11, align 8, !tbaa !19
  %13 = load i64, ptr %2, align 8, !tbaa !19
  %14 = sub i64 %12, %13
  store i64 %14, ptr %1, align 8
  store i32 1, ptr %3, align 4
  br label %15

15:                                               ; preds = %10, %9
  call void @llvm.lifetime.end.p0(i64 8, ptr %2) #11
  %16 = load i64, ptr %1, align 8
  ret i64 %16
}