; Function Attrs: mustprogress nofree norecurse nosync nounwind willreturn memory(read, argmem: none, inaccessiblemem: none) uwtable
define noundef i64 @_ZN4lean24get_available_stack_sizeEv() local_unnamed_addr #7 {
  %1 = tail call noundef ptr @llvm.frameaddress.p0(i32 0)
  %2 = ptrtoint ptr %1 to i64
  %3 = tail call align 8 ptr @llvm.threadlocal.address.p0(ptr align 8 @_ZN4leanL12g_stack_baseE)
  %4 = load i64, ptr %3, align 8, !tbaa !12
  %5 = sub i64 %4, %2
  %6 = tail call align 8 ptr @llvm.threadlocal.address.p0(ptr align 8 @_ZN4leanL12g_stack_sizeE)
  %7 = load i64, ptr %6, align 8, !tbaa !12
  %.0 = tail call i64 @llvm.usub.sat.i64(i64 %7, i64 %5)
  ret i64 %.0
}